target datalayout = "e-m:e-p270:32:32-p271:32:32-p272:64:64-i64:64-i128:128-f80:128-n8:16:32:64-S128"
target triple = "x86_64-pc-linux-gnu"

%"class.datalog::execution_context" = type <{ ptr, %class.vector, %class.u_map, ptr, i32, %"struct.datalog::execution_context::stats", [4 x i8] }>
%class.vector = type { ptr }
%class.u_map = type { %class.map }
%class.map = type { %class.table2map }
%class.table2map = type { %class.core_hashtable }
%class.core_hashtable = type <{ ptr, i32, i32, i32, [4 x i8] }>
%"struct.datalog::execution_context::stats" = type { i32, i32, i32, i32, i32, i32, i32, i32, i32, i32, i32, i32, i32, i32 }
%class.stopwatch = type <{ %"class.std::chrono::time_point", %"class.std::chrono::duration", i8, [7 x i8] }>
%"class.std::chrono::time_point" = type { %"class.std::chrono::duration" }
%"class.std::chrono::duration" = type { i64 }

; Function Attrs: noinline noreturn nounwind uwtable
define linkonce_odr hidden void @__clang_call_terminate(ptr noundef %0) #8 comdat {
  %2 = call ptr @__cxa_begin_catch(ptr %0) #3
  call void @_ZSt9terminatev() #22
  unreachable
}

; Function Attrs: mustprogress nounwind uwtable
define linkonce_odr hidden void @_ZNSt6chrono8durationIlSt5ratioILl1ELl1000000000EEEC2IlvEERKT_(ptr noundef nonnull align 8 dereferenceable(8) %0, ptr noundef nonnull align 8 dereferenceable(8) %1) unnamed_addr #5 comdat align 2 {
  %3 = alloca ptr, align 8
  %4 = alloca ptr, align 8
  store ptr %0, ptr %3, align 8, !tbaa !534
  store ptr %1, ptr %4, align 8, !tbaa !529
  %5 = load ptr, ptr %3, align 8
  %6 = getelementptr inbounds nuw %"class.std::chrono::duration", ptr %5, i32 0, i32 0
  %7 = load ptr, ptr %4, align 8, !tbaa !529
  %8 = load i64, ptr %7, align 8, !tbaa !237
  store i64 %8, ptr %6, align 8, !tbaa !536
  ret void
}

; Function Attrs: mustprogress nounwind uwtable
define linkonce_odr hidden noundef i64 @_ZNSt6chrono15duration_valuesIlE4zeroEv() #5 comdat align 2 {
  ret i64 0
}

; Function Attrs: mustprogress nounwind uwtable
define linkonce_odr hidden noundef i64 @_ZNKSt6chrono8durationIlSt5ratioILl1ELl1000000000EEE5countEv(ptr noundef nonnull align 8 dereferenceable(8) %0) #5 comdat align 2 {
  %2 = alloca ptr, align 8
  store ptr %0, ptr %2, align 8, !tbaa !534
  %3 = load ptr, ptr %2, align 8
  %4 = getelementptr inbounds nuw %"class.std::chrono::duration", ptr %3, i32 0, i32 0
  %5 = load i64, ptr %4, align 8, !tbaa !536
  ret i64 %5
}

; Function Attrs: mustprogress uwtable
define linkonce_odr i64 @_ZNSt6chronomiIlSt5ratioILl1ELl1000000000EElS2_EENSt11common_typeIJNS_8durationIT_T0_EENS4_IT1_T2_EEEE4typeERKS7_RKSA_(ptr noundef nonnull align 8 dereferenceable(8) %0, ptr noundef nonnull align 8 dereferenceable(8) %1) #4 comdat {
  %3 = alloca %"class.std::chrono::duration", align 8
  %4 = alloca ptr, align 8
  %5 = alloca ptr, align 8
  %6 = alloca i64, align 8
  %7 = alloca %"class.std::chrono::duration", align 8
  %8 = alloca %"class.std::chrono::duration", align 8
  store ptr %0, ptr %4, align 8, !tbaa !534
  store ptr %1, ptr %5, align 8, !tbaa !534
  call void @llvm.lifetime.start.p0(i64 8, ptr %6) #3
  call void @llvm.lifetime.start.p0(i64 8, ptr %7) #3
  %9 = load ptr, ptr %4, align 8, !tbaa !534
  call void @llvm.memcpy.p0.p0.i64(ptr align 8 %7, ptr align 8 %9, i64 8, i1 false), !tbaa.struct !264
  %10 = call noundef i64 @_ZNKSt6chrono8durationIlSt5ratioILl1ELl1000000000EEE5countEv(ptr noundef nonnull align 8 dereferenceable(8) %7)
  call void @llvm.lifetime.start.p0(i64 8, ptr %8) #3
  %11 = load ptr, ptr %5, align 8, !tbaa !534
  call void @llvm.memcpy.p0.p0.i64(ptr align 8 %8, ptr align 8 %11, i64 8, i1 false), !tbaa.struct !264
  %12 = call noundef i64 @_ZNKSt6chrono8durationIlSt5ratioILl1ELl1000000000EEE5countEv(ptr noundef nonnull align 8 dereferenceable(8) %8)
  %13 = sub nsw i64 %10, %12
  store i64 %13, ptr %6, align 8, !tbaa !237
  call void @_ZNSt6chrono8durationIlSt5ratioILl1ELl1000000000EEEC2IlvEERKT_(ptr noundef nonnull align 8 dereferenceable(8) %3, ptr noundef nonnull align 8 dereferenceable(8) %6)
  call void @llvm.lifetime.end.p0(i64 8, ptr %8) #3
  call void @llvm.lifetime.end.p0(i64 8, ptr %7) #3
  call void @llvm.lifetime.end.p0(i64 8, ptr %6) #3
  %14 = getelementptr inbounds nuw %"class.std::chrono::duration", ptr %3, i32 0, i32 0
  %15 = load i64, ptr %14, align 8
  ret i64 %15
}

; Function Attrs: mustprogress nounwind uwtable
define linkonce_odr hidden i64 @_ZNKSt6chrono10time_pointINS_3_V212steady_clockENS_8durationIlSt5ratioILl1ELl1000000000EEEEE16time_since_epochEv(ptr noundef nonnull align 8 dereferenceable(8) %0) #5 comdat align 2 {
  %2 = alloca %"class.std::chrono::duration", align 8
  %3 = alloca ptr, align 8
  store ptr %0, ptr %3, align 8, !tbaa !532
  %4 = load ptr, ptr %3, align 8
  %5 = getelementptr inbounds nuw %"class.std::chrono::time_point", ptr %4, i32 0, i32 0
  call void @llvm.memcpy.p0.p0.i64(ptr align 8 %2, ptr align 8 %5, i64 8, i1 false), !tbaa.struct !264
  %6 = getelementptr inbounds nuw %"class.std::chrono::duration", ptr %2, i32 0, i32 0
  %7 = load i64, ptr %6, align 8
  ret i64 %7
}

; Function Attrs: mustprogress nounwind uwtable
define linkonce_odr hidden i64 @_ZNSt6chrono8durationIlSt5ratioILl1ELl1000000000EEE4zeroEv() #5 comdat align 2 personality ptr @__gxx_personality_v0 {
  %1 = alloca %"class.std::chrono::duration", align 8
  %2 = alloca i64, align 8
  call void @llvm.lifetime.start.p0(i64 8, ptr %2) #3
  %3 = call noundef i64 @_ZNSt6chrono15duration_valuesIlE4zeroEv() #3
  store i64 %3, ptr %2, align 8, !tbaa !237
  invoke void @_ZNSt6chrono8durationIlSt5ratioILl1ELl1000000000EEEC2IlvEERKT_(ptr noundef nonnull align 8 dereferenceable(8) %1, ptr noundef nonnull align 8 dereferenceable(8) %2)
          to label %4 unwind label %7

4:                                                ; preds = %0
  call void @llvm.lifetime.end.p0(i64 8, ptr %2) #3
  %5 = getelementptr inbounds nuw %"class.std::chrono::duration", ptr %1, i32 0, i32 0
  %6 = load i64, ptr %5, align 8
  ret i64 %6

7:                                                ; preds = %0
  %8 = landingpad { ptr, i32 }
          catch ptr null
  %9 = extractvalue { ptr, i32 } %8, 0
  call void @__clang_call_terminate(ptr %9) #22
  unreachable
}

; Function Attrs: mustprogress nounwind uwtable
define linkonce_odr hidden noundef nonnull align 8 dereferenceable(8) ptr @_ZNSt6chrono8durationIlSt5ratioILl1ELl1000000000EEEpLERKS3_(ptr noundef nonnull align 8 dereferenceable(8) %0, ptr noundef nonnull align 8 dereferenceable(8) %1) #5 comdat align 2 {
  %3 = alloca ptr, align 8
  %4 = alloca ptr, align 8
  store ptr %0, ptr %3, align 8, !tbaa !534
  store ptr %1, ptr %4, align 8, !tbaa !534
  %5 = load ptr, ptr %3, align 8
  %6 = load ptr, ptr %4, align 8, !tbaa !534
  %7 = call noundef i64 @_ZNKSt6chrono8durationIlSt5ratioILl1ELl1000000000EEE5countEv(ptr noundef nonnull align 8 dereferenceable(8) %6)
  %8 = getelementptr inbounds nuw %"class.std::chrono::duration", ptr %5, i32 0, i32 0
  %9 = load i64, ptr %8, align 8, !tbaa !536
  %10 = add nsw i64 %9, %7
  store i64 %10, ptr %8, align 8, !tbaa !536
  ret ptr %5
}

; Function Attrs: mustprogress uwtable
define linkonce_odr i64 @_ZNSt6chronomiINS_3_V212steady_clockENS_8durationIlSt5ratioILl1ELl1000000000EEEES6_EENSt11common_typeIJT0_T1_EE4typeERKNS_10time_pointIT_S8_EERKNSC_ISD_S9_EE(ptr noundef nonnull align 8 dereferenceable(8) %0, ptr noundef nonnull align 8 dereferenceable(8) %1) #4 comdat {
  %3 = alloca %"class.std::chrono::duration", align 8
  %4 = alloca ptr, align 8
  %5 = alloca ptr, align 8
  %6 = alloca %"class.std::chrono::duration", align 8
  %7 = alloca %"class.std::chrono::duration", align 8
  store ptr %0, ptr %4, align 8, !tbaa !532
  store ptr %1, ptr %5, align 8, !tbaa !532
  call void @llvm.lifetime.start.p0(i64 8, ptr %6) #3
  %8 = load ptr, ptr %4, align 8, !tbaa !532
  %9 = call i64 @_ZNKSt6chrono10time_pointINS_3_V212steady_clockENS_8durationIlSt5ratioILl1ELl1000000000EEEEE16time_since_epochEv(ptr noundef nonnull align 8 dereferenceable(8) %8)
  %10 = getelementptr inbounds nuw %"class.std::chrono::duration", ptr %6, i32 0, i32 0
  store i64 %9, ptr %10, align 8
  call void @llvm.lifetime.start.p0(i64 8, ptr %7) #3
  %11 = load ptr, ptr %5, align 8, !tbaa !532
  %12 = call i64 @_ZNKSt6chrono10time_pointINS_3_V212steady_clockENS_8durationIlSt5ratioILl1ELl1000000000EEEEE16time_since_epochEv(ptr noundef nonnull align 8 dereferenceable(8) %11)
  %13 = getelementptr inbounds nuw %"class.std::chrono::duration", ptr %7, i32 0, i32 0
  store i64 %12, ptr %13, align 8
  %14 = call i64 @_ZNSt6chronomiIlSt5ratioILl1ELl1000000000EElS2_EENSt11common_typeIJNS_8durationIT_T0_EENS4_IT1_T2_EEEE4typeERKS7_RKSA_(ptr noundef nonnull align 8 dereferenceable(8) %6, ptr noundef nonnull align 8 dereferenceable(8) %7)
  %15 = getelementptr inbounds nuw %"class.std::chrono::duration", ptr %3, i32 0, i32 0
  store i64 %14, ptr %15, align 8
  call void @llvm.lifetime.end.p0(i64 8, ptr %7) #3
  call void @llvm.lifetime.end.p0(i64 8, ptr %6) #3
  %16 = getelementptr inbounds nuw %"class.std::chrono::duration", ptr %3, i32 0, i32 0
  %17 = load i64, ptr %16, align 8
  ret i64 %17
}

; Function Attrs: mustprogress nounwind uwtable
define linkonce_odr hidden i64 @_ZN9stopwatch3getEv() #5 comdat align 2 {
  %1 = alloca %"class.std::chrono::time_point", align 8
  %2 = call i64 @_ZNSt6chrono3_V212steady_clock3nowEv() #3
  %3 = getelementptr inbounds nuw %"class.std::chrono::time_point", ptr %1, i32 0, i32 0
  %4 = getelementptr inbounds nuw %"class.std::chrono::duration", ptr %3, i32 0, i32 0
  store i64 %2, ptr %4, align 8
  %5 = getelementptr inbounds nuw %"class.std::chrono::time_point", ptr %1, i32 0, i32 0
  %6 = getelementptr inbounds nuw %"class.std::chrono::duration", ptr %5, i32 0, i32 0
  %7 = load i64, ptr %6, align 8
  ret i64 %7
}

; Function Attrs: mustprogress nounwind uwtable
define linkonce_odr hidden void @_ZNSt6chrono10time_pointINS_3_V212steady_clockENS_8durationIlSt5ratioILl1ELl1000000000EEEEEC2Ev(ptr noundef nonnull align 8 dereferenceable(8) %0) unnamed_addr #5 comdat align 2 {
  %2 = alloca ptr, align 8
  store ptr %0, ptr %2, align 8, !tbaa !532
  %3 = load ptr, ptr %2, align 8
  %4 = getelementptr inbounds nuw %"class.std::chrono::time_point", ptr %3, i32 0, i32 0
  %5 = call i64 @_ZNSt6chrono8durationIlSt5ratioILl1ELl1000000000EEE4zeroEv() #3
  %6 = getelementptr inbounds nuw %"class.std::chrono::duration", ptr %4, i32 0, i32 0
  store i64 %5, ptr %6, align 8
  ret void
}

; Function Attrs: mustprogress nounwind uwtable
define linkonce_odr hidden void @_ZN9stopwatch5startEv(ptr noundef nonnull align 8 dereferenceable(17) %0) #5 comdat align 2 {
  %2 = alloca ptr, align 8
  %3 = alloca %"class.std::chrono::time_point", align 8
  store ptr %0, ptr %2, align 8, !tbaa !257
  %4 = load ptr, ptr %2, align 8
  %5 = getelementptr inbounds nuw %class.stopwatch, ptr %4, i32 0, i32 2
  %6 = load i8, ptr %5, align 8, !tbaa !258, !range !262, !noundef !263
  %7 = trunc i8 %6 to i1
  br i1 %7, label %14, label %8

8:                                                ; preds = %1
  call void @llvm.lifetime.start.p0(i64 8, ptr %3) #3
  %9 = call i64 @_ZN9stopwatch3getEv()
  %10 = getelementptr inbounds nuw %"class.std::chrono::time_point", ptr %3, i32 0, i32 0
  %11 = getelementptr inbounds nuw %"class.std::chrono::duration", ptr %10, i32 0, i32 0
  store i64 %9, ptr %11, align 8
  %12 = getelementptr inbounds nuw %class.stopwatch, ptr %4, i32 0, i32 0
  call void @llvm.memcpy.p0.p0.i64(ptr align 8 %12, ptr align 8 %3, i64 8, i1 false), !tbaa.struct !264
  call void @llvm.lifetime.end.p0(i64 8, ptr %3) #3
  %13 = getelementptr inbounds nuw %class.stopwatch, ptr %4, i32 0, i32 2
  store i8 1, ptr %13, align 8, !tbaa !258
  br label %14

14:                                               ; preds = %8, %1
  ret void
}

; Function Attrs: mustprogress nounwind uwtable
define linkonce_odr hidden void @_ZN9stopwatch5resetEv(ptr noundef nonnull align 8 dereferenceable(17) %0) #5 comdat align 2 {
  %2 = alloca ptr, align 8
  %3 = alloca %"class.std::chrono::duration", align 8
  store ptr %0, ptr %2, align 8, !tbaa !257
  %4 = load ptr, ptr %2, align 8
  call void @llvm.lifetime.start.p0(i64 8, ptr %3) #3
  %5 = call i64 @_ZNSt6chrono8durationIlSt5ratioILl1ELl1000000000EEE4zeroEv() #3
  %6 = getelementptr inbounds nuw %"class.std::chrono::duration", ptr %3, i32 0, i32 0
  store i64 %5, ptr %6, align 8
  %7 = getelementptr inbounds nuw %class.stopwatch, ptr %4, i32 0, i32 1
  call void @llvm.memcpy.p0.p0.i64(ptr align 8 %7, ptr align 8 %3, i64 8, i1 false), !tbaa.struct !264
  call void @llvm.lifetime.end.p0(i64 8, ptr %3) #3
  ret void
}

; Function Attrs: mustprogress uwtable
define linkonce_odr hidden void @_ZN9stopwatch4stopEv(ptr noundef nonnull align 8 dereferenceable(17) %0) #4 comdat align 2 {
  %2 = alloca ptr, align 8
  %3 = alloca %"class.std::chrono::duration", align 8
  %4 = alloca %"class.std::chrono::time_point", align 8
  store ptr %0, ptr %2, align 8, !tbaa !257
  %5 = load ptr, ptr %2, align 8
  %6 = getelementptr inbounds nuw %class.stopwatch, ptr %5, i32 0, i32 2
  %7 = load i8, ptr %6, align 8, !tbaa !258, !range !262, !noundef !263
  %8 = trunc i8 %7 to i1
  br i1 %8, label %9, label %19

9:                                                ; preds = %1
  call void @llvm.lifetime.start.p0(i64 8, ptr %3) #3
  call void @llvm.lifetime.start.p0(i64 8, ptr %4) #3
  %10 = call i64 @_ZN9stopwatch3getEv()
  %11 = getelementptr inbounds nuw %"class.std::chrono::time_point", ptr %4, i32 0, i32 0
  %12 = getelementptr inbounds nuw %"class.std::chrono::duration", ptr %11, i32 0, i32 0
  store i64 %10, ptr %12, align 8
  %13 = getelementptr inbounds nuw %class.stopwatch, ptr %5, i32 0, i32 0
  %14 = call i64 @_ZNSt6chronomiINS_3_V212steady_clockENS_8durationIlSt5ratioILl1ELl1000000000EEEES6_EENSt11common_typeIJT0_T1_EE4typeERKNS_10time_pointIT_S8_EERKNSC_ISD_S9_EE(ptr noundef nonnull align 8 dereferenceable(8) %4, ptr noundef nonnull align 8 dereferenceable(8) %13)
  %15 = getelementptr inbounds nuw %"class.std::chrono::duration", ptr %3, i32 0, i32 0
  store i64 %14, ptr %15, align 8
  %16 = getelementptr inbounds nuw %class.stopwatch, ptr %5, i32 0, i32 1
  %17 = call noundef nonnull align 8 dereferenceable(8) ptr @_ZNSt6chrono8durationIlSt5ratioILl1ELl1000000000EEEpLERKS3_(ptr noundef nonnull align 8 dereferenceable(8) %16, ptr noundef nonnull align 8 dereferenceable(8) %3)
  call void @llvm.lifetime.end.p0(i64 8, ptr %4) #3
  call void @llvm.lifetime.end.p0(i64 8, ptr %3) #3
  %18 = getelementptr inbounds nuw %class.stopwatch, ptr %5, i32 0, i32 2
  store i8 0, ptr %18, align 8, !tbaa !258
  br label %19

19:                                               ; preds = %9, %1
  ret void
}

; Function Attrs: mustprogress uwtable
define linkonce_odr hidden void @_ZN9stopwatchC2Ev(ptr noundef nonnull align 8 dereferenceable(17) %0) unnamed_addr #4 comdat align 2 {
  %2 = alloca ptr, align 8
  store ptr %0, ptr %2, align 8, !tbaa !257
  %3 = load ptr, ptr %2, align 8
  %4 = getelementptr inbounds nuw %class.stopwatch, ptr %3, i32 0, i32 0
  call void @_ZNSt6chrono10time_pointINS_3_V212steady_clockENS_8durationIlSt5ratioILl1ELl1000000000EEEEEC2Ev(ptr noundef nonnull align 8 dereferenceable(8) %4)
  %5 = getelementptr inbounds nuw %class.stopwatch, ptr %3, i32 0, i32 2
  store i8 0, ptr %5, align 8, !tbaa !258
  call void @_ZN9stopwatch5resetEv(ptr noundef nonnull align 8 dereferenceable(17) %3)
  ret void
}

; Function Attrs: mustprogress uwtable
define hidden void @_ZN7datalog17execution_context13set_timelimitEj(ptr noundef nonnull align 8 dereferenceable(108) %0, i32 noundef %1) #4 align 2 {
  %3 = alloca ptr, align 8
  %4 = alloca i32, align 4
  store ptr %0, ptr %3, align 8, !tbaa !3
  store i32 %1, ptr %4, align 4, !tbaa !38
  %5 = load ptr, ptr %3, align 8
  %6 = load i32, ptr %4, align 4, !tbaa !38
  %7 = getelementptr inbounds nuw %"class.datalog::execution_context", ptr %5, i32 0, i32 4
  store i32 %6, ptr %7, align 8, !tbaa !23
  %8 = getelementptr inbounds nuw %"class.datalog::execution_context", ptr %5, i32 0, i32 3
  %9 = load ptr, ptr %8, align 8, !tbaa !10
  %10 = icmp ne ptr %9, null
  br i1 %10, label %14, label %11

11:                                               ; preds = %2
  %12 = call noalias noundef ptr @_ZN6memory8allocateEm(i64 noundef 24)
  call void @_ZN9stopwatchC2Ev(ptr noundef nonnull align 8 dereferenceable(17) %12)
  %13 = getelementptr inbounds nuw %"class.datalog::execution_context", ptr %5, i32 0, i32 3
  store ptr %12, ptr %13, align 8, !tbaa !10
  br label %19

14:                                               ; preds = %2
  %15 = getelementptr inbounds nuw %"class.datalog::execution_context", ptr %5, i32 0, i32 3
  %16 = load ptr, ptr %15, align 8, !tbaa !10
  call void @_ZN9stopwatch4stopEv(ptr noundef nonnull align 8 dereferenceable(17) %16)
  %17 = getelementptr inbounds nuw %"class.datalog::execution_context", ptr %5, i32 0, i32 3
  %18 = load ptr, ptr %17, align 8, !tbaa !10
  call void @_ZN9stopwatch5resetEv(ptr noundef nonnull align 8 dereferenceable(17) %18)
  br label %19

19:                                               ; preds = %14, %11
  %20 = getelementptr inbounds nuw %"class.datalog::execution_context", ptr %5, i32 0, i32 3
  %21 = load ptr, ptr %20, align 8, !tbaa !10
  call void @_ZN9stopwatch5startEv(ptr noundef nonnull align 8 dereferenceable(17) %21)
  ret void
}