; Function Attrs: mustprogress uwtable
define hidden void @_ZN7datalog17execution_context13set_timelimitEj(ptr noundef nonnull align 8 captures(none) dereferenceable(108) initializes((48, 52)) %0, i32 noundef %1) local_unnamed_addr #3 align 2 personality ptr @__gxx_personality_v0 {
  %3 = getelementptr inbounds nuw i8, ptr %0, i64 48
  store i32 %1, ptr %3, align 8, !tbaa !45
  %4 = getelementptr inbounds nuw i8, ptr %0, i64 40
  %5 = load ptr, ptr %4, align 8, !tbaa !34
  %.not = icmp eq ptr %5, null
  br i1 %.not, label %6, label %8

6:                                                ; preds = %2
  %7 = tail call noalias noundef ptr @_ZN6memory8allocateEm(i64 noundef 24)
  tail call void @llvm.memset.p0.i64(ptr noundef nonnull align 8 dereferenceable(17) %7, i8 0, i64 17, i1 false)
  store ptr %7, ptr %4, align 8, !tbaa !34
  br label %20

8:                                                ; preds = %2
  %9 = getelementptr inbounds nuw i8, ptr %5, i64 16
  %10 = load i8, ptr %9, align 8, !tbaa !254, !range !258, !noundef !259
  %11 = trunc nuw i8 %10 to i1
  br i1 %11, label %12, label %_ZN9stopwatch4stopEv.exit

12:                                               ; preds = %8
  %13 = tail call i64 @_ZNSt6chrono3_V212steady_clock3nowEv() #25
  %.sroa.0.0.copyload.i2.i.i = load i64, ptr %5, align 8, !tbaa !260
  %14 = sub i64 %13, %.sroa.0.0.copyload.i2.i.i
  %15 = getelementptr inbounds nuw i8, ptr %5, i64 8
  %16 = load i64, ptr %15, align 8, !tbaa !261
  %17 = add nsw i64 %14, %16
  store i64 %17, ptr %15, align 8, !tbaa !261
  store i8 0, ptr %9, align 8, !tbaa !254
  %.pre = load ptr, ptr %4, align 8, !tbaa !34
  br label %_ZN9stopwatch4stopEv.exit

_ZN9stopwatch4stopEv.exit:                        ; preds = %8, %12
  %18 = phi ptr [ %5, %8 ], [ %.pre, %12 ]
  %19 = getelementptr inbounds nuw i8, ptr %18, i64 8
  store i64 0, ptr %19, align 8, !tbaa !260
  br label %20

20:                                               ; preds = %_ZN9stopwatch4stopEv.exit, %6
  %21 = phi ptr [ %18, %_ZN9stopwatch4stopEv.exit ], [ %7, %6 ]
  %22 = getelementptr inbounds nuw i8, ptr %21, i64 16
  %23 = load i8, ptr %22, align 8, !tbaa !254, !range !258, !noundef !259
  %24 = trunc nuw i8 %23 to i1
  br i1 %24, label %_ZN9stopwatch5startEv.exit, label %25

25:                                               ; preds = %20
  %26 = tail call i64 @_ZNSt6chrono3_V212steady_clock3nowEv() #25
  store i64 %26, ptr %21, align 8, !tbaa !260
  store i8 1, ptr %22, align 8, !tbaa !254
  br label %_ZN9stopwatch5startEv.exit

_ZN9stopwatch5startEv.exit:                       ; preds = %20, %25
  ret void
}